target datalayout = "e-m:e-p270:32:32-p271:32:32-p272:64:64-i64:64-i128:128-f80:128-n8:16:32:64-S128"
target triple = "x86_64-pc-linux-gnu"

%struct.Kit_Sop_t_ = type { i32, i32, ptr }

; Function Attrs: inlinehint nounwind uwtable
define internal i32 @Kit_SopCube(ptr noundef %0, i32 noundef %1) #3 {
  %3 = alloca ptr, align 8
  %4 = alloca i32, align 4
  store ptr %0, ptr %3, align 8, !tbaa !8
  store i32 %1, ptr %4, align 4, !tbaa !10
  %5 = load ptr, ptr %3, align 8, !tbaa !8
  %6 = getelementptr inbounds nuw %struct.Kit_Sop_t_, ptr %5, i32 0, i32 2
  %7 = load ptr, ptr %6, align 8, !tbaa !20
  %8 = load i32, ptr %4, align 4, !tbaa !10
  %9 = sext i32 %8 to i64
  %10 = getelementptr inbounds i32, ptr %7, i64 %9
  %11 = load i32, ptr %10, align 4, !tbaa !10
  ret i32 %11
}

; Function Attrs: inlinehint nounwind uwtable
define internal i32 @Kit_SopCubeNum(ptr noundef %0) #3 {
  %2 = alloca ptr, align 8
  store ptr %0, ptr %2, align 8, !tbaa !8
  %3 = load ptr, ptr %2, align 8, !tbaa !8
  %4 = getelementptr inbounds nuw %struct.Kit_Sop_t_, ptr %3, i32 0, i32 1
  %5 = load i32, ptr %4, align 4, !tbaa !17
  ret i32 %5
}

; Function Attrs: nounwind uwtable
define ptr @Kit_SopToBdd(ptr noundef %0, ptr noundef %1, i32 noundef %2) #0 {
  %4 = alloca ptr, align 8
  %5 = alloca ptr, align 8
  %6 = alloca i32, align 4
  %7 = alloca ptr, align 8
  %8 = alloca ptr, align 8
  %9 = alloca ptr, align 8
  %10 = alloca ptr, align 8
  %11 = alloca i32, align 4
  %12 = alloca i32, align 4
  %13 = alloca i32, align 4
  %14 = alloca i32, align 4
  store ptr %0, ptr %4, align 8, !tbaa !3
  store ptr %1, ptr %5, align 8, !tbaa !8
  store i32 %2, ptr %6, align 4, !tbaa !10
  call void @llvm.lifetime.start.p0(i64 8, ptr %7) #6
  call void @llvm.lifetime.start.p0(i64 8, ptr %8) #6
  call void @llvm.lifetime.start.p0(i64 8, ptr %9) #6
  call void @llvm.lifetime.start.p0(i64 8, ptr %10) #6
  call void @llvm.lifetime.start.p0(i64 4, ptr %11) #6
  call void @llvm.lifetime.start.p0(i64 4, ptr %12) #6
  call void @llvm.lifetime.start.p0(i64 4, ptr %13) #6
  call void @llvm.lifetime.start.p0(i64 4, ptr %14) #6
  %15 = load ptr, ptr %4, align 8, !tbaa !3
  %16 = call ptr @Cudd_ReadLogicZero(ptr noundef %15)
  store ptr %16, ptr %7, align 8, !tbaa !12
  %17 = load ptr, ptr %7, align 8, !tbaa !12
  call void @Cudd_Ref(ptr noundef %17)
  store i32 0, ptr %13, align 4, !tbaa !10
  br label %18

18:                                               ; preds = %83, %3
  %19 = load i32, ptr %13, align 4, !tbaa !10
  %20 = load ptr, ptr %5, align 8, !tbaa !8
  %21 = call i32 @Kit_SopCubeNum(ptr noundef %20)
  %22 = icmp slt i32 %19, %21
  br i1 %22, label %23, label %28

23:                                               ; preds = %18
  %24 = load ptr, ptr %5, align 8, !tbaa !8
  %25 = load i32, ptr %13, align 4, !tbaa !10
  %26 = call i32 @Kit_SopCube(ptr noundef %24, i32 noundef %25)
  store i32 %26, ptr %11, align 4, !tbaa !10
  %27 = icmp ne i32 %26, 0
  br label %28

28:                                               ; preds = %23, %18
  %29 = phi i1 [ false, %18 ], [ %27, %23 ]
  br i1 %29, label %30, label %86

30:                                               ; preds = %28
  %31 = load ptr, ptr %4, align 8, !tbaa !3
  %32 = call ptr @Cudd_ReadOne(ptr noundef %31)
  store ptr %32, ptr %8, align 8, !tbaa !12
  %33 = load ptr, ptr %8, align 8, !tbaa !12
  call void @Cudd_Ref(ptr noundef %33)
  store i32 0, ptr %14, align 4, !tbaa !10
  br label %34

34:                                               ; preds = %70, %30
  %35 = load i32, ptr %14, align 4, !tbaa !10
  %36 = load i32, ptr %6, align 4, !tbaa !10
  %37 = icmp slt i32 %35, %36
  br i1 %37, label %38, label %73

38:                                               ; preds = %34
  %39 = load i32, ptr %11, align 4, !tbaa !10
  %40 = load i32, ptr %14, align 4, !tbaa !10
  %41 = mul nsw i32 2, %40
  %42 = lshr i32 %39, %41
  %43 = and i32 %42, 3
  store i32 %43, ptr %12, align 4, !tbaa !10
  %44 = load i32, ptr %12, align 4, !tbaa !10
  %45 = icmp eq i32 %44, 1
  br i1 %45, label %46, label %53

46:                                               ; preds = %38
  %47 = load ptr, ptr %4, align 8, !tbaa !3
  %48 = load i32, ptr %14, align 4, !tbaa !10
  %49 = call ptr @Cudd_bddIthVar(ptr noundef %47, i32 noundef %48)
  %50 = ptrtoint ptr %49 to i64
  %51 = xor i64 %50, 1
  %52 = inttoptr i64 %51 to ptr
  store ptr %52, ptr %10, align 8, !tbaa !12
  br label %62

53:                                               ; preds = %38
  %54 = load i32, ptr %12, align 4, !tbaa !10
  %55 = icmp eq i32 %54, 2
  br i1 %55, label %56, label %60

56:                                               ; preds = %53
  %57 = load ptr, ptr %4, align 8, !tbaa !3
  %58 = load i32, ptr %14, align 4, !tbaa !10
  %59 = call ptr @Cudd_bddIthVar(ptr noundef %57, i32 noundef %58)
  store ptr %59, ptr %10, align 8, !tbaa !12
  br label %61

60:                                               ; preds = %53
  br label %70

61:                                               ; preds = %56
  br label %62

62:                                               ; preds = %61, %46
  %63 = load ptr, ptr %4, align 8, !tbaa !3
  %64 = load ptr, ptr %8, align 8, !tbaa !12
  store ptr %64, ptr %9, align 8, !tbaa !12
  %65 = load ptr, ptr %10, align 8, !tbaa !12
  %66 = call ptr @Cudd_bddAnd(ptr noundef %63, ptr noundef %64, ptr noundef %65)
  store ptr %66, ptr %8, align 8, !tbaa !12
  %67 = load ptr, ptr %8, align 8, !tbaa !12
  call void @Cudd_Ref(ptr noundef %67)
  %68 = load ptr, ptr %4, align 8, !tbaa !3
  %69 = load ptr, ptr %9, align 8, !tbaa !12
  call void @Cudd_RecursiveDeref(ptr noundef %68, ptr noundef %69)
  br label %70

70:                                               ; preds = %62, %60
  %71 = load i32, ptr %14, align 4, !tbaa !10
  %72 = add nsw i32 %71, 1
  store i32 %72, ptr %14, align 4, !tbaa !10
  br label %34, !llvm.loop !14

73:                                               ; preds = %34
  %74 = load ptr, ptr %4, align 8, !tbaa !3
  %75 = load ptr, ptr %7, align 8, !tbaa !12
  store ptr %75, ptr %9, align 8, !tbaa !12
  %76 = load ptr, ptr %8, align 8, !tbaa !12
  %77 = call ptr @Cudd_bddOr(ptr noundef %74, ptr noundef %75, ptr noundef %76)
  store ptr %77, ptr %7, align 8, !tbaa !12
  %78 = load ptr, ptr %7, align 8, !tbaa !12
  call void @Cudd_Ref(ptr noundef %78)
  %79 = load ptr, ptr %4, align 8, !tbaa !3
  %80 = load ptr, ptr %9, align 8, !tbaa !12
  call void @Cudd_RecursiveDeref(ptr noundef %79, ptr noundef %80)
  %81 = load ptr, ptr %4, align 8, !tbaa !3
  %82 = load ptr, ptr %8, align 8, !tbaa !12
  call void @Cudd_RecursiveDeref(ptr noundef %81, ptr noundef %82)
  br label %83

83:                                               ; preds = %73
  %84 = load i32, ptr %13, align 4, !tbaa !10
  %85 = add nsw i32 %84, 1
  store i32 %85, ptr %13, align 4, !tbaa !10
  br label %18, !llvm.loop !16

86:                                               ; preds = %28
  %87 = load ptr, ptr %7, align 8, !tbaa !12
  call void @Cudd_Deref(ptr noundef %87)
  %88 = load ptr, ptr %7, align 8, !tbaa !12
  call void @llvm.lifetime.end.p0(i64 4, ptr %14) #6
  call void @llvm.lifetime.end.p0(i64 4, ptr %13) #6
  call void @llvm.lifetime.end.p0(i64 4, ptr %12) #6
  call void @llvm.lifetime.end.p0(i64 4, ptr %11) #6
  call void @llvm.lifetime.end.p0(i64 8, ptr %10) #6
  call void @llvm.lifetime.end.p0(i64 8, ptr %9) #6
  call void @llvm.lifetime.end.p0(i64 8, ptr %8) #6
  call void @llvm.lifetime.end.p0(i64 8, ptr %7) #6
  ret ptr %88
}