; Function Attrs: nounwind uwtable
define noundef ptr @Kit_SopToBdd(ptr noundef %0, ptr noundef readonly captures(none) %1, i32 noundef %2) local_unnamed_addr #0 {
  %4 = tail call ptr @Cudd_ReadLogicZero(ptr noundef %0) #6
  tail call void @Cudd_Ref(ptr noundef %4) #6
  %5 = getelementptr i8, ptr %1, i64 8
  %6 = getelementptr i8, ptr %1, i64 4
  %.val44 = load i32, ptr %6, align 4, !tbaa !3
  %7 = icmp sgt i32 %.val44, 0
  br i1 %7, label %.lr.ph48, label %.critedge

.lr.ph48:                                         ; preds = %3
  %8 = icmp sgt i32 %2, 0
  br i1 %8, label %.lr.ph48.split.us, label %.lr.ph48.split

.lr.ph48.split.us:                                ; preds = %.lr.ph48, %._crit_edge.us
  %indvars.iv56 = phi i64 [ %indvars.iv.next57, %._crit_edge.us ], [ 0, %.lr.ph48 ]
  %.03645.us = phi ptr [ %27, %._crit_edge.us ], [ %4, %.lr.ph48 ]
  %.val41.us = load ptr, ptr %5, align 8, !tbaa !10
  %9 = getelementptr inbounds nuw i32, ptr %.val41.us, i64 %indvars.iv56
  %10 = load i32, ptr %9, align 4, !tbaa !11
  %.not.us = icmp eq i32 %10, 0
  br i1 %.not.us, label %.critedge, label %.lr.ph.us

.lr.ph.us:                                        ; preds = %.lr.ph48.split.us
  %11 = tail call ptr @Cudd_ReadOne(ptr noundef %0) #6
  tail call void @Cudd_Ref(ptr noundef %11) #6
  br label %12

12:                                               ; preds = %.lr.ph.us, %25
  %.043.us = phi i32 [ 0, %.lr.ph.us ], [ %26, %25 ]
  %.03742.us = phi ptr [ %11, %.lr.ph.us ], [ %.1.us, %25 ]
  %13 = shl nuw nsw i32 %.043.us, 1
  %14 = lshr i32 %10, %13
  %15 = and i32 %14, 3
  switch i32 %15, label %25 [
    i32 1, label %18
    i32 2, label %16
  ]

16:                                               ; preds = %12
  %17 = tail call ptr @Cudd_bddIthVar(ptr noundef %0, i32 noundef %.043.us) #6
  br label %23

18:                                               ; preds = %12
  %19 = tail call ptr @Cudd_bddIthVar(ptr noundef %0, i32 noundef %.043.us) #6
  %20 = ptrtoint ptr %19 to i64
  %21 = xor i64 %20, 1
  %22 = inttoptr i64 %21 to ptr
  br label %23

23:                                               ; preds = %18, %16
  %.038.us = phi ptr [ %22, %18 ], [ %17, %16 ]
  %24 = tail call ptr @Cudd_bddAnd(ptr noundef %0, ptr noundef %.03742.us, ptr noundef %.038.us) #6
  tail call void @Cudd_Ref(ptr noundef %24) #6
  tail call void @Cudd_RecursiveDeref(ptr noundef %0, ptr noundef %.03742.us) #6
  br label %25

25:                                               ; preds = %23, %12
  %.1.us = phi ptr [ %24, %23 ], [ %.03742.us, %12 ]
  %26 = add nuw nsw i32 %.043.us, 1
  %exitcond.not = icmp eq i32 %26, %2
  br i1 %exitcond.not, label %._crit_edge.us, label %12, !llvm.loop !12

._crit_edge.us:                                   ; preds = %25
  %27 = tail call ptr @Cudd_bddOr(ptr noundef %0, ptr noundef %.03645.us, ptr noundef %.1.us) #6
  tail call void @Cudd_Ref(ptr noundef %27) #6
  tail call void @Cudd_RecursiveDeref(ptr noundef %0, ptr noundef %.03645.us) #6
  tail call void @Cudd_RecursiveDeref(ptr noundef %0, ptr noundef %.1.us) #6
  %indvars.iv.next57 = add nuw nsw i64 %indvars.iv56, 1
  %.val.us = load i32, ptr %6, align 4, !tbaa !3
  %28 = sext i32 %.val.us to i64
  %29 = icmp slt i64 %indvars.iv.next57, %28
  br i1 %29, label %.lr.ph48.split.us, label %.critedge, !llvm.loop !14

.lr.ph48.split:                                   ; preds = %.lr.ph48, %32
  %indvars.iv = phi i64 [ %indvars.iv.next, %32 ], [ 0, %.lr.ph48 ]
  %.03645 = phi ptr [ %34, %32 ], [ %4, %.lr.ph48 ]
  %.val41 = load ptr, ptr %5, align 8, !tbaa !10
  %30 = getelementptr inbounds nuw i32, ptr %.val41, i64 %indvars.iv
  %31 = load i32, ptr %30, align 4, !tbaa !11
  %.not = icmp eq i32 %31, 0
  br i1 %.not, label %.critedge, label %32

32:                                               ; preds = %.lr.ph48.split
  %33 = tail call ptr @Cudd_ReadOne(ptr noundef %0) #6
  tail call void @Cudd_Ref(ptr noundef %33) #6
  %34 = tail call ptr @Cudd_bddOr(ptr noundef %0, ptr noundef %.03645, ptr noundef %33) #6
  tail call void @Cudd_Ref(ptr noundef %34) #6
  tail call void @Cudd_RecursiveDeref(ptr noundef %0, ptr noundef %.03645) #6
  tail call void @Cudd_RecursiveDeref(ptr noundef %0, ptr noundef %33) #6
  %indvars.iv.next = add nuw nsw i64 %indvars.iv, 1
  %.val = load i32, ptr %6, align 4, !tbaa !3
  %35 = sext i32 %.val to i64
  %36 = icmp slt i64 %indvars.iv.next, %35
  br i1 %36, label %.lr.ph48.split, label %.critedge, !llvm.loop !14

.critedge:                                        ; preds = %.lr.ph48.split, %32, %.lr.ph48.split.us, %._crit_edge.us, %3
  %.036.lcssa = phi ptr [ %4, %3 ], [ %27, %._crit_edge.us ], [ %.03645.us, %.lr.ph48.split.us ], [ %34, %32 ], [ %.03645, %.lr.ph48.split ]
  tail call void @Cudd_Deref(ptr noundef %.036.lcssa) #6
  ret ptr %.036.lcssa
}